; ModuleID = '60/39.c'
source_filename = "60/39.c"
target datalayout = "e-m:e-p270:32:32-p271:32:32-p272:64:64-i64:64-f80:128-n8:16:32:64-S128"
target triple = "x86_64-pc-linux-gnu"

@.str = private unnamed_addr constant [3 x i8] c"%d\00", align 1
@.str.1 = private unnamed_addr constant [7 x i8] c"%d %d\0A\00", align 1
@.str.2 = private unnamed_addr constant [6 x i8] c"empty\00", align 1

; Function Attrs: noinline nounwind uwtable
define dso_local void @main() #0 {
  %1 = alloca i32, align 4
  %2 = alloca i32, align 4
  %3 = alloca i32, align 4
  %4 = alloca i32, align 4
  %5 = alloca i32, align 4
  %6 = alloca i32, align 4
  %7 = alloca i32, align 4
  %8 = call i32 (i8*, ...) @__isoc99_scanf(i8* getelementptr inbounds ([3 x i8], [3 x i8]* @.str, i64 0, i64 0), i32* %1)
  store i32 5, i32* %2, align 4
  store i32 0, i32* %4, align 4
  br label %9

9:                                                ; preds = %60, %0
  %10 = load i32, i32* %2, align 4
  %11 = load i32, i32* %1, align 4
  %12 = icmp sle i32 %10, %11
  br i1 %12, label %13, label %63

13:                                               ; preds = %9
  store i32 3, i32* %3, align 4
  store i32 0, i32* %6, align 4
  br label %14

14:                                               ; preds = %28, %13
  %15 = load i32, i32* %3, align 4
  %16 = load i32, i32* %2, align 4
  %17 = sub nsw i32 %16, 2
  %18 = sub nsw i32 %17, 1
  %19 = icmp sle i32 %15, %18
  br i1 %19, label %20, label %31

20:                                               ; preds = %14
  %21 = load i32, i32* %2, align 4
  %22 = sub nsw i32 %21, 2
  %23 = load i32, i32* %3, align 4
  %24 = srem i32 %22, %23
  %25 = icmp eq i32 %24, 0
  br i1 %25, label %26, label %27

26:                                               ; preds = %20
  store i32 1, i32* %6, align 4
  br label %31

27:                                               ; preds = %20
  br label %28

28:                                               ; preds = %27
  %29 = load i32, i32* %3, align 4
  %30 = add nsw i32 %29, 2
  store i32 %30, i32* %3, align 4
  br label %14

31:                                               ; preds = %26, %14
  %32 = load i32, i32* %6, align 4
  %33 = icmp eq i32 %32, 0
  br i1 %33, label %34, label %59

34:                                               ; preds = %31
  store i32 3, i32* %3, align 4
  store i32 0, i32* %7, align 4
  br label %35

35:                                               ; preds = %47, %34
  %36 = load i32, i32* %3, align 4
  %37 = load i32, i32* %2, align 4
  %38 = sub nsw i32 %37, 1
  %39 = icmp sle i32 %36, %38
  br i1 %39, label %40, label %50

40:                                               ; preds = %35
  %41 = load i32, i32* %2, align 4
  %42 = load i32, i32* %3, align 4
  %43 = srem i32 %41, %42
  %44 = icmp eq i32 %43, 0
  br i1 %44, label %45, label %46

45:                                               ; preds = %40
  store i32 1, i32* %7, align 4
  br label %50

46:                                               ; preds = %40
  br label %47

47:                                               ; preds = %46
  %48 = load i32, i32* %3, align 4
  %49 = add nsw i32 %48, 2
  store i32 %49, i32* %3, align 4
  br label %35

50:                                               ; preds = %45, %35
  %51 = load i32, i32* %7, align 4
  %52 = icmp eq i32 %51, 0
  br i1 %52, label %53, label %58

53:                                               ; preds = %50
  %54 = load i32, i32* %2, align 4
  %55 = sub nsw i32 %54, 2
  %56 = load i32, i32* %2, align 4
  %57 = call i32 (i8*, ...) @printf(i8* getelementptr inbounds ([7 x i8], [7 x i8]* @.str.1, i64 0, i64 0), i32 %55, i32 %56)
  store i32 1, i32* %4, align 4
  br label %58

58:                                               ; preds = %53, %50
  br label %59

59:                                               ; preds = %58, %31
  br label %60

60:                                               ; preds = %59
  %61 = load i32, i32* %2, align 4
  %62 = add nsw i32 %61, 1
  store i32 %62, i32* %2, align 4
  br label %9

63:                                               ; preds = %9
  %64 = load i32, i32* %4, align 4
  %65 = icmp eq i32 %64, 0
  br i1 %65, label %66, label %68

66:                                               ; preds = %63
  %67 = call i32 (i8*, ...) @printf(i8* getelementptr inbounds ([6 x i8], [6 x i8]* @.str.2, i64 0, i64 0))
  br label %68

68:                                               ; preds = %66, %63
  ret void
}

declare dso_local i32 @__isoc99_scanf(i8*, ...) #1

declare dso_local i32 @printf(i8*, ...) #1


!llvm.module.flags = !{!0}
!llvm.ident = !{!1}

!0 = !{i32 1, !"wchar_size", i32 4}
!1 = !{!"clang version 10.0.0-4ubuntu1 "}
