; ModuleID = 'source-C-CXX/59/39.c'
source_filename = "source-C-CXX/59/39.c"
target datalayout = "e-m:e-p270:32:32-p271:32:32-p272:64:64-i64:64-f80:128-n8:16:32:64-S128"
target triple = "x86_64-pc-linux-gnu"

@.str = private unnamed_addr constant [3 x i8] c"%d\00", align 1
@.str.1 = private unnamed_addr constant [7 x i8] c"%d %d\0A\00", align 1
@.str.2 = private unnamed_addr constant [6 x i8] c"empty\00", align 1

; Function Attrs: nofree nounwind sspstrong uwtable
define dso_local void @main() local_unnamed_addr #0 {
  %1 = alloca i32, align 4
  %2 = bitcast i32* %1 to i8*
  call void @llvm.lifetime.start.p0i8(i64 4, i8* nonnull %2) #3
  %3 = call i32 (i8*, ...) @__isoc99_scanf(i8* getelementptr inbounds ([3 x i8], [3 x i8]* @.str, i64 0, i64 0), i32* nonnull %1)
  %4 = load i32, i32* %1, align 4, !tbaa !5
  %5 = icmp slt i32 %4, 5
  br i1 %5, label %38, label %6

6:                                                ; preds = %0, %31
  %7 = phi i32 [ %32, %31 ], [ %4, %0 ]
  %8 = phi i32 [ %34, %31 ], [ 5, %0 ]
  %9 = phi i32 [ %33, %31 ], [ 0, %0 ]
  %10 = add nsw i32 %8, -2
  %11 = add nsw i32 %8, -3
  %12 = icmp ult i32 %8, 6
  br i1 %12, label %13, label %16

13:                                               ; preds = %14, %6
  br label %23

14:                                               ; preds = %16
  %15 = icmp ugt i32 %20, %11
  br i1 %15, label %13, label %16, !llvm.loop !9

16:                                               ; preds = %6, %14
  %17 = phi i32 [ %20, %14 ], [ 3, %6 ]
  %18 = urem i32 %10, %17
  %19 = icmp eq i32 %18, 0
  %20 = add nuw nsw i32 %17, 2
  br i1 %19, label %31, label %14

21:                                               ; preds = %23
  %22 = icmp ult i32 %27, %8
  br i1 %22, label %23, label %28, !llvm.loop !11

23:                                               ; preds = %13, %21
  %24 = phi i32 [ %27, %21 ], [ 3, %13 ]
  %25 = urem i32 %8, %24
  %26 = icmp eq i32 %25, 0
  %27 = add nuw nsw i32 %24, 2
  br i1 %26, label %31, label %21

28:                                               ; preds = %21
  %29 = call i32 (i8*, ...) @printf(i8* nonnull dereferenceable(1) getelementptr inbounds ([7 x i8], [7 x i8]* @.str.1, i64 0, i64 0), i32 %10, i32 %8)
  %30 = load i32, i32* %1, align 4, !tbaa !5
  br label %31

31:                                               ; preds = %16, %23, %28
  %32 = phi i32 [ %30, %28 ], [ %7, %23 ], [ %7, %16 ]
  %33 = phi i32 [ 1, %28 ], [ %9, %23 ], [ %9, %16 ]
  %34 = add nuw nsw i32 %8, 1
  %35 = icmp slt i32 %8, %32
  br i1 %35, label %6, label %36, !llvm.loop !12

36:                                               ; preds = %31
  %37 = icmp eq i32 %33, 0
  br i1 %37, label %38, label %40

38:                                               ; preds = %0, %36
  %39 = call i32 (i8*, ...) @printf(i8* nonnull dereferenceable(1) getelementptr inbounds ([6 x i8], [6 x i8]* @.str.2, i64 0, i64 0))
  br label %40

40:                                               ; preds = %38, %36
  call void @llvm.lifetime.end.p0i8(i64 4, i8* nonnull %2) #3
  ret void
}

; Function Attrs: argmemonly mustprogress nofree nosync nounwind willreturn
declare void @llvm.lifetime.start.p0i8(i64 immarg, i8* nocapture) #1

; Function Attrs: nofree nounwind
declare noundef i32 @__isoc99_scanf(i8* nocapture noundef readonly, ...) local_unnamed_addr #2

; Function Attrs: nofree nounwind
declare noundef i32 @printf(i8* nocapture noundef readonly, ...) local_unnamed_addr #2

; Function Attrs: argmemonly mustprogress nofree nosync nounwind willreturn
declare void @llvm.lifetime.end.p0i8(i64 immarg, i8* nocapture) #1


!llvm.module.flags = !{!0, !1, !2, !3}
!llvm.ident = !{!4}

!0 = !{i32 1, !"wchar_size", i32 4}
!1 = !{i32 7, !"PIC Level", i32 2}
!2 = !{i32 7, !"PIE Level", i32 2}
!3 = !{i32 7, !"uwtable", i32 1}
!4 = !{!"clang version 13.0.0"}
!5 = !{!6, !6, i64 0}
!6 = !{!"int", !7, i64 0}
!7 = !{!"omnipotent char", !8, i64 0}
!8 = !{!"Simple C/C++ TBAA"}
!9 = distinct !{!9, !10}
!10 = !{!"llvm.loop.mustprogress"}
!11 = distinct !{!11, !10}
!12 = distinct !{!12, !10}
